target datalayout = "e-m:e-p270:32:32-p271:32:32-p272:64:64-i64:64-i128:128-f80:128-n8:16:32:64-S128"
target triple = "x86_64-pc-linux-gnu"

@.str.18 = private unnamed_addr constant [84 x i8] c"\0AidasAkzoNob_dns: Akzo Nobel chemical kinetics DAE serial example problem for IDAS\0A\00", align 1
@.str.19 = private unnamed_addr constant [53 x i8] c"Linear solver: DENSE, Jacobian is computed by IDAS.\0A\00", align 1
@.str.20 = private unnamed_addr constant [46 x i8] c"Tolerance parameters:  rtol = %g   atol = %g\0A\00", align 1
@.str.21 = private unnamed_addr constant [83 x i8] c"---------------------------------------------------------------------------------\0A\00", align 1
@.str.22 = private unnamed_addr constant [52 x i8] c"   t        y1        y2       y3       y4       y5\00", align 1
@.str.23 = private unnamed_addr constant [29 x i8] c"      y6    | nst  k      h\0A\00", align 1

; Function Attrs: nounwind uwtable
define internal void @PrintHeader(double noundef %0, double noundef %1, ptr noundef %2) #0 {
  %4 = alloca double, align 8
  %5 = alloca double, align 8
  %6 = alloca ptr, align 8
  store double %0, ptr %4, align 8, !tbaa !4
  store double %1, ptr %5, align 8, !tbaa !4
  store ptr %2, ptr %6, align 8, !tbaa !10
  %7 = call i32 (ptr, ...) @printf(ptr noundef @.str.18)
  %8 = call i32 (ptr, ...) @printf(ptr noundef @.str.19)
  %9 = load double, ptr %4, align 8, !tbaa !4
  %10 = load double, ptr %5, align 8, !tbaa !4
  %11 = call i32 (ptr, ...) @printf(ptr noundef @.str.20, double noundef %9, double noundef %10)
  %12 = call i32 (ptr, ...) @printf(ptr noundef @.str.21)
  %13 = call i32 (ptr, ...) @printf(ptr noundef @.str.22)
  %14 = call i32 (ptr, ...) @printf(ptr noundef @.str.23)
  %15 = call i32 (ptr, ...) @printf(ptr noundef @.str.21)
  ret void
}