; Function Attrs: nofree nounwind uwtable
define internal fastcc void @PrintHeader() unnamed_addr #5 {
  %puts = tail call i32 @puts(ptr nonnull dereferenceable(1) @str.2)
  %puts2 = tail call i32 @puts(ptr nonnull dereferenceable(1) @str.3)
  %1 = tail call i32 (ptr, ...) @printf(ptr noundef nonnull dereferenceable(1) @.str.20, double noundef 1.000000e-08, double noundef 1.000000e-10)
  %puts3 = tail call i32 @puts(ptr nonnull dereferenceable(1) @str.6)
  %2 = tail call i32 (ptr, ...) @printf(ptr noundef nonnull dereferenceable(1) @.str.22)
  %puts4 = tail call i32 @puts(ptr nonnull dereferenceable(1) @str.5)
  %puts5 = tail call i32 @puts(ptr nonnull dereferenceable(1) @str.6)
  ret void
}